#include <math.h>
#include <stdio.h>
#include <stdlib.h>
#include <string.h>

int F(int n)
{
    int f;
    if(n==1||n==2)
    {
        f=1;
    }
    else
    {
        f=F(n-1)+F(n-2);
    }
    return (f);
}
int main()
{
    int n,i,a;
    scanf("%d",&n);
    for(i=0;i<n;i++)
    {
        scanf("%d",&a);
        printf("%d\n",F(a));
    }
    return 0;
}
